target datalayout = "e-m:e-p270:32:32-p271:32:32-p272:64:64-i64:64-i128:128-f80:128-n8:16:32:64-S128"
target triple = "x86_64-pc-linux-gnu"

%"struct.(anonymous namespace)::SynthIce40Pass" = type <{ %"struct.Yosys::ScriptPass", %"class.std::__cxx11::basic_string", %"class.std::__cxx11::basic_string", %"class.std::__cxx11::basic_string", %"class.std::__cxx11::basic_string", %"class.std::__cxx11::basic_string", i8, i8, i8, i8, i8, i8, i8, i8, i8, i8, i8, i8, i8, i8, [2 x i8], i32, [4 x i8] }>
%"struct.Yosys::ScriptPass" = type { %"struct.Yosys::Pass", i8, i8, ptr, %"class.std::__cxx11::basic_string", %"class.std::__cxx11::basic_string" }
%"struct.Yosys::Pass" = type { ptr, %"class.std::__cxx11::basic_string", %"class.std::__cxx11::basic_string", i32, i64, i8, ptr }
%"class.std::__cxx11::basic_string" = type { %"struct.std::__cxx11::basic_string<char>::_Alloc_hider", i64, %union.anon }
%"struct.std::__cxx11::basic_string<char>::_Alloc_hider" = type { ptr }
%union.anon = type { i64, [8 x i8] }

@.str.57 = private unnamed_addr constant [10 x i8] c"-auto-top\00", align 1
@.str.58 = private unnamed_addr constant [1 x i8] zeroinitializer, align 1
@.str.59 = private unnamed_addr constant [3 x i8] c"hx\00", align 1

; Function Attrs: mustprogress uwtable
define internal void @_ZN12_GLOBAL__N_114SynthIce40Pass11clear_flagsEv(ptr noundef nonnull align 8 dereferenceable(364) %0) unnamed_addr #4 align 2 {
  %2 = alloca ptr, align 8
  store ptr %0, ptr %2, align 8
  %3 = load ptr, ptr %2, align 8
  %4 = getelementptr inbounds %"struct.(anonymous namespace)::SynthIce40Pass", ptr %3, i32 0, i32 1
  %5 = call noundef nonnull align 8 dereferenceable(32) ptr @_ZNSt7__cxx1112basic_stringIcSt11char_traitsIcESaIcEEaSEPKc(ptr noundef nonnull align 8 dereferenceable(32) %4, ptr noundef @.str.57)
  %6 = getelementptr inbounds %"struct.(anonymous namespace)::SynthIce40Pass", ptr %3, i32 0, i32 2
  %7 = call noundef nonnull align 8 dereferenceable(32) ptr @_ZNSt7__cxx1112basic_stringIcSt11char_traitsIcESaIcEEaSEPKc(ptr noundef nonnull align 8 dereferenceable(32) %6, ptr noundef @.str.58)
  %8 = getelementptr inbounds %"struct.(anonymous namespace)::SynthIce40Pass", ptr %3, i32 0, i32 3
  %9 = call noundef nonnull align 8 dereferenceable(32) ptr @_ZNSt7__cxx1112basic_stringIcSt11char_traitsIcESaIcEEaSEPKc(ptr noundef nonnull align 8 dereferenceable(32) %8, ptr noundef @.str.58)
  %10 = getelementptr inbounds %"struct.(anonymous namespace)::SynthIce40Pass", ptr %3, i32 0, i32 4
  %11 = call noundef nonnull align 8 dereferenceable(32) ptr @_ZNSt7__cxx1112basic_stringIcSt11char_traitsIcESaIcEEaSEPKc(ptr noundef nonnull align 8 dereferenceable(32) %10, ptr noundef @.str.58)
  %12 = getelementptr inbounds %"struct.(anonymous namespace)::SynthIce40Pass", ptr %3, i32 0, i32 6
  store i8 0, ptr %12, align 8
  %13 = getelementptr inbounds %"struct.(anonymous namespace)::SynthIce40Pass", ptr %3, i32 0, i32 7
  store i8 0, ptr %13, align 1
  %14 = getelementptr inbounds %"struct.(anonymous namespace)::SynthIce40Pass", ptr %3, i32 0, i32 21
  store i32 -1, ptr %14, align 8
  %15 = getelementptr inbounds %"struct.(anonymous namespace)::SynthIce40Pass", ptr %3, i32 0, i32 8
  store i8 0, ptr %15, align 2
  %16 = getelementptr inbounds %"struct.(anonymous namespace)::SynthIce40Pass", ptr %3, i32 0, i32 9
  store i8 0, ptr %16, align 1
  %17 = getelementptr inbounds %"struct.(anonymous namespace)::SynthIce40Pass", ptr %3, i32 0, i32 10
  store i8 0, ptr %17, align 4
  %18 = getelementptr inbounds %"struct.(anonymous namespace)::SynthIce40Pass", ptr %3, i32 0, i32 11
  store i8 1, ptr %18, align 1
  %19 = getelementptr inbounds %"struct.(anonymous namespace)::SynthIce40Pass", ptr %3, i32 0, i32 12
  store i8 0, ptr %19, align 2
  %20 = getelementptr inbounds %"struct.(anonymous namespace)::SynthIce40Pass", ptr %3, i32 0, i32 13
  store i8 0, ptr %20, align 1
  %21 = getelementptr inbounds %"struct.(anonymous namespace)::SynthIce40Pass", ptr %3, i32 0, i32 14
  store i8 0, ptr %21, align 8
  %22 = getelementptr inbounds %"struct.(anonymous namespace)::SynthIce40Pass", ptr %3, i32 0, i32 15
  store i8 0, ptr %22, align 1
  %23 = getelementptr inbounds %"struct.(anonymous namespace)::SynthIce40Pass", ptr %3, i32 0, i32 16
  store i8 1, ptr %23, align 2
  %24 = getelementptr inbounds %"struct.(anonymous namespace)::SynthIce40Pass", ptr %3, i32 0, i32 18
  store i8 0, ptr %24, align 4
  %25 = getelementptr inbounds %"struct.(anonymous namespace)::SynthIce40Pass", ptr %3, i32 0, i32 5
  %26 = call noundef nonnull align 8 dereferenceable(32) ptr @_ZNSt7__cxx1112basic_stringIcSt11char_traitsIcESaIcEEaSEPKc(ptr noundef nonnull align 8 dereferenceable(32) %25, ptr noundef @.str.59)
  %27 = getelementptr inbounds %"struct.(anonymous namespace)::SynthIce40Pass", ptr %3, i32 0, i32 19
  store i8 0, ptr %27, align 1
  ret void
}