; Function Attrs: mustprogress uwtable
define internal void @_ZN12_GLOBAL__N_114SynthIce40Pass11clear_flagsEv(ptr noundef nonnull align 8 dereferenceable(364) %0) unnamed_addr #4 align 2 {
  %2 = getelementptr inbounds i8, ptr %0, i64 184
  %3 = tail call noundef nonnull align 8 dereferenceable(32) ptr @_ZNSt7__cxx1112basic_stringIcSt11char_traitsIcESaIcEEaSEPKc(ptr noundef nonnull align 8 dereferenceable(32) %2, ptr noundef nonnull @.str.57)
  %4 = getelementptr inbounds i8, ptr %0, i64 216
  %5 = tail call noundef nonnull align 8 dereferenceable(32) ptr @_ZNSt7__cxx1112basic_stringIcSt11char_traitsIcESaIcEEaSEPKc(ptr noundef nonnull align 8 dereferenceable(32) %4, ptr noundef nonnull @.str.58)
  %6 = getelementptr inbounds i8, ptr %0, i64 248
  %7 = tail call noundef nonnull align 8 dereferenceable(32) ptr @_ZNSt7__cxx1112basic_stringIcSt11char_traitsIcESaIcEEaSEPKc(ptr noundef nonnull align 8 dereferenceable(32) %6, ptr noundef nonnull @.str.58)
  %8 = getelementptr inbounds i8, ptr %0, i64 280
  %9 = tail call noundef nonnull align 8 dereferenceable(32) ptr @_ZNSt7__cxx1112basic_stringIcSt11char_traitsIcESaIcEEaSEPKc(ptr noundef nonnull align 8 dereferenceable(32) %8, ptr noundef nonnull @.str.58)
  %10 = getelementptr inbounds i8, ptr %0, i64 344
  store i8 0, ptr %10, align 8
  %11 = getelementptr inbounds i8, ptr %0, i64 345
  store i8 0, ptr %11, align 1
  %12 = getelementptr inbounds i8, ptr %0, i64 360
  store i32 -1, ptr %12, align 8
  %13 = getelementptr inbounds i8, ptr %0, i64 346
  store <4 x i8> <i8 0, i8 0, i8 0, i8 1>, ptr %13, align 2
  %14 = getelementptr inbounds i8, ptr %0, i64 350
  %15 = getelementptr inbounds i8, ptr %0, i64 354
  store i32 0, ptr %14, align 2
  store i8 1, ptr %15, align 2
  %16 = getelementptr inbounds i8, ptr %0, i64 356
  store i8 0, ptr %16, align 4
  %17 = getelementptr inbounds i8, ptr %0, i64 312
  %18 = tail call noundef nonnull align 8 dereferenceable(32) ptr @_ZNSt7__cxx1112basic_stringIcSt11char_traitsIcESaIcEEaSEPKc(ptr noundef nonnull align 8 dereferenceable(32) %17, ptr noundef nonnull @.str.59)
  %19 = getelementptr inbounds i8, ptr %0, i64 357
  store i8 0, ptr %19, align 1
  ret void
}